target datalayout = "e-m:e-p270:32:32-p271:32:32-p272:64:64-i64:64-i128:128-f80:128-n8:16:32:64-S128"
target triple = "x86_64-pc-linux-gnu"

%"struct.faiss::IndexIVF" = type <{ %"struct.faiss::Index.base", [4 x i8], %"struct.faiss::IndexIVFInterface", ptr, i8, [7 x i8], i64, i32, i32, %"struct.faiss::DirectMap", i8, [7 x i8] }>
%"struct.faiss::Index.base" = type <{ ptr, i32, [4 x i8], i64, i8, i8, [2 x i8], i32, float }>
%"struct.faiss::IndexIVFInterface" = type { ptr, %"struct.faiss::Level1Quantizer", i64, i64 }
%"struct.faiss::Level1Quantizer" = type { ptr, i64, i8, i8, %"struct.faiss::ClusteringParameters", ptr }
%"struct.faiss::ClusteringParameters" = type { i32, i32, i8, i8, i8, i8, i8, i32, i32, i32, i64 }
%"struct.faiss::DirectMap" = type { i32, %"class.std::vector", %"class.std::unordered_map" }
%"class.std::vector" = type { %"struct.std::_Vector_base" }
%"struct.std::_Vector_base" = type { %"struct.std::_Vector_base<long, std::allocator<long>>::_Vector_impl" }
%"struct.std::_Vector_base<long, std::allocator<long>>::_Vector_impl" = type { %"struct.std::_Vector_base<long, std::allocator<long>>::_Vector_impl_data" }
%"struct.std::_Vector_base<long, std::allocator<long>>::_Vector_impl_data" = type { ptr, ptr, ptr }
%"class.std::unordered_map" = type { %"class.std::_Hashtable" }
%"class.std::_Hashtable" = type { ptr, i64, %"struct.std::__detail::_Hash_node_base", i64, %"struct.std::__detail::_Prime_rehash_policy", ptr }
%"struct.std::__detail::_Hash_node_base" = type { ptr }
%"struct.std::__detail::_Prime_rehash_policy" = type { float, i64 }
%"struct.faiss::IndexIVFAdditiveQuantizer" = type <{ %"struct.faiss::IndexIVF.base", [7 x i8], ptr, i32, [4 x i8] }>
%"struct.faiss::IndexIVF.base" = type <{ %"struct.faiss::Index.base", [4 x i8], %"struct.faiss::IndexIVFInterface", ptr, i8, [7 x i8], i64, i32, i32, %"struct.faiss::DirectMap", i8 }>

; Function Attrs: mustprogress uwtable
define void @_ZN5faiss25IndexIVFAdditiveQuantizerC2EPNS_17AdditiveQuantizerEPNS_5IndexEmmNS_10MetricTypeE(ptr noundef nonnull align 8 dereferenceable(276) %0, ptr noundef %1, ptr noundef %2, i64 noundef %3, i64 noundef %4, i32 noundef %5) unnamed_addr #2 align 2 {
  %7 = alloca ptr, align 8
  %8 = alloca ptr, align 8
  %9 = alloca ptr, align 8
  %10 = alloca i64, align 8
  %11 = alloca i64, align 8
  %12 = alloca i32, align 4
  store ptr %0, ptr %7, align 8
  store ptr %1, ptr %8, align 8
  store ptr %2, ptr %9, align 8
  store i64 %3, ptr %10, align 8
  store i64 %4, ptr %11, align 8
  store i32 %5, ptr %12, align 4
  %13 = load ptr, ptr %7, align 8
  %14 = load ptr, ptr %9, align 8
  %15 = load i64, ptr %10, align 8
  %16 = load i64, ptr %11, align 8
  %17 = load i32, ptr %12, align 4
  call void @_ZN5faiss8IndexIVFC2EPNS_5IndexEmmmNS_10MetricTypeE(ptr noundef nonnull align 8 dereferenceable(257) %13, ptr noundef %14, i64 noundef %15, i64 noundef %16, i64 noundef 0, i32 noundef %17)
  store ptr getelementptr inbounds ({ [35 x ptr], [6 x ptr] }, ptr @_ZTVN5faiss25IndexIVFAdditiveQuantizerE, i32 0, i32 0, i32 2), ptr %13, align 8
  %18 = getelementptr inbounds i8, ptr %13, i64 40
  store ptr getelementptr inbounds ({ [35 x ptr], [6 x ptr] }, ptr @_ZTVN5faiss25IndexIVFAdditiveQuantizerE, i32 0, i32 1, i32 2), ptr %18, align 8
  %19 = getelementptr inbounds %"struct.faiss::IndexIVFAdditiveQuantizer", ptr %13, i32 0, i32 2
  %20 = load ptr, ptr %8, align 8
  store ptr %20, ptr %19, align 8
  %21 = getelementptr inbounds %"struct.faiss::IndexIVFAdditiveQuantizer", ptr %13, i32 0, i32 3
  store i32 0, ptr %21, align 8
  %22 = getelementptr inbounds %"struct.faiss::IndexIVF", ptr %13, i32 0, i32 10
  store i8 1, ptr %22, align 8
  ret void
}