; Function Attrs: mustprogress uwtable
define void @_ZN5faiss25IndexIVFAdditiveQuantizerC2EPNS_17AdditiveQuantizerEPNS_5IndexEmmNS_10MetricTypeE(ptr noundef nonnull align 8 dereferenceable(276) %0, ptr noundef %1, ptr noundef %2, i64 noundef %3, i64 noundef %4, i32 noundef %5) unnamed_addr #2 align 2 {
  tail call void @_ZN5faiss8IndexIVFC2EPNS_5IndexEmmmNS_10MetricTypeE(ptr noundef nonnull align 8 dereferenceable(257) %0, ptr noundef %2, i64 noundef %3, i64 noundef %4, i64 noundef 0, i32 noundef %5)
  store ptr getelementptr inbounds ({ [35 x ptr], [6 x ptr] }, ptr @_ZTVN5faiss25IndexIVFAdditiveQuantizerE, i64 0, i32 0, i64 2), ptr %0, align 8
  %7 = getelementptr inbounds i8, ptr %0, i64 40
  store ptr getelementptr inbounds ({ [35 x ptr], [6 x ptr] }, ptr @_ZTVN5faiss25IndexIVFAdditiveQuantizerE, i64 0, i32 1, i64 2), ptr %7, align 8
  %8 = getelementptr inbounds i8, ptr %0, i64 264
  store ptr %1, ptr %8, align 8
  %9 = getelementptr inbounds i8, ptr %0, i64 272
  store i32 0, ptr %9, align 8
  %10 = getelementptr inbounds i8, ptr %0, i64 256
  store i8 1, ptr %10, align 8
  ret void
}